ARM GAS  C:\Users\bboucham\AppData\Local\Temp\ccbZZYma.s 			page 1


   1              		.syntax unified
   2              		.cpu cortex-m3
   3              		.fpu softvfp
   4              		.eabi_attribute 20, 1
   5              		.eabi_attribute 21, 1
   6              		.eabi_attribute 23, 3
   7              		.eabi_attribute 24, 1
   8              		.eabi_attribute 25, 1
   9              		.eabi_attribute 26, 1
  10              		.eabi_attribute 30, 1
  11              		.eabi_attribute 34, 1
  12              		.eabi_attribute 18, 4
  13              		.thumb
  14              		.syntax unified
  15              		.file	"main.c"
  16              		.text
  17              	.Ltext0:
  18              		.cfi_sections	.debug_frame
  19              		.section	.text.main,"ax",%progbits
  20              		.align	2
  21              		.global	main
  22              		.thumb
  23              		.thumb_func
  24              		.type	main, %function
  25              	main:
  26              	.LFB64:
  27              		.file 1 "main.c"
   1:main.c        **** #include <project.h>
   2:main.c        **** #include <stdio.h>
   3:main.c        **** 
   4:main.c        **** int main()
   5:main.c        **** {
  28              		.loc 1 5 0
  29              		.cfi_startproc
  30              		@ args = 0, pretend = 0, frame = 80
  31              		@ frame_needed = 0, uses_anonymous_args = 0
  32 0000 70B5     		push	{r4, r5, r6, lr}
  33              		.cfi_def_cfa_offset 16
  34              		.cfi_offset 4, -16
  35              		.cfi_offset 5, -12
  36              		.cfi_offset 6, -8
  37              		.cfi_offset 14, -4
  38 0002 94B0     		sub	sp, sp, #80
  39              		.cfi_def_cfa_offset 96
   6:main.c        ****     char message[80];
   7:main.c        ****     CyGlobalIntEnable; 
  40              		.loc 1 7 0
  41              		.syntax unified
  42              	@ 7 "main.c" 1
  43 0004 62B6     		CPSIE   i
  44              	@ 0 "" 2
   8:main.c        ****     
   9:main.c        ****     // Démarrage
  10:main.c        ****     Timer_1_Start();
  45              		.loc 1 10 0
  46              		.thumb
  47              		.syntax unified
ARM GAS  C:\Users\bboucham\AppData\Local\Temp\ccbZZYma.s 			page 2


  48 0006 FFF7FEFF 		bl	Timer_1_Start
  49              	.LVL0:
  11:main.c        ****     Timer_2_Start();
  50              		.loc 1 11 0
  51 000a FFF7FEFF 		bl	Timer_2_Start
  52              	.LVL1:
  12:main.c        ****     UART_1_Start();
  53              		.loc 1 12 0
  54 000e FFF7FEFF 		bl	UART_1_Start
  55              	.LVL2:
  13:main.c        ****     UART_2_Start();
  56              		.loc 1 13 0
  57 0012 FFF7FEFF 		bl	UART_2_Start
  58              	.LVL3:
  59              	.L6:
  60              	.LBB2:
  14:main.c        ****     
  15:main.c        **** 
  16:main.c        ****     for(;;)
  17:main.c        ****     {
  18:main.c        ****         
  19:main.c        **** 
  20:main.c        ****         Timer_1_WriteCounter(16777215);
  61              		.loc 1 20 0
  62 0016 6FF07F40 		mvn	r0, #-16777216
  63 001a FFF7FEFF 		bl	Timer_1_WriteCounter
  64              	.LVL4:
  21:main.c        ****         Timer_2_WriteCounter(16777215);
  65              		.loc 1 21 0
  66 001e 6FF07F40 		mvn	r0, #-16777216
  67 0022 FFF7FEFF 		bl	Timer_2_WriteCounter
  68              	.LVL5:
  22:main.c        ****         
  23:main.c        ****         trigger_Write(1);
  69              		.loc 1 23 0
  70 0026 0120     		movs	r0, #1
  71 0028 FFF7FEFF 		bl	trigger_Write
  72              	.LVL6:
  24:main.c        ****         CyDelayUs(10);                                    
  73              		.loc 1 24 0
  74 002c 0A20     		movs	r0, #10
  75 002e FFF7FEFF 		bl	CyDelayUs
  76              	.LVL7:
  25:main.c        ****         trigger_Write(0);
  77              		.loc 1 25 0
  78 0032 0020     		movs	r0, #0
  79 0034 FFF7FEFF 		bl	trigger_Write
  80              	.LVL8:
  26:main.c        ****         
  27:main.c        ****         CyDelay(50); 
  81              		.loc 1 27 0
  82 0038 3220     		movs	r0, #50
  83 003a FFF7FEFF 		bl	CyDelay
  84              	.LVL9:
  28:main.c        ****         
  29:main.c        ****         uint32 valeur_lue = Timer_1_ReadCounter();
  85              		.loc 1 29 0
ARM GAS  C:\Users\bboucham\AppData\Local\Temp\ccbZZYma.s 			page 3


  86 003e FFF7FEFF 		bl	Timer_1_ReadCounter
  87              	.LVL10:
  30:main.c        ****         uint32 ticks_ecoules = 16777215 - valeur_lue;
  88              		.loc 1 30 0
  89 0042 C0F1FF13 		rsb	r3, r0, #16711935
  90 0046 03F57F43 		add	r3, r3, #65280
  91              	.LVL11:
  31:main.c        ****         
  32:main.c        ****         uint32 microsecondes = ticks_ecoules / 24;
  33:main.c        ****         int dist = (int)(microsecondes / 58);
  92              		.loc 1 33 0
  93 004a 174A     		ldr	r2, .L8
  94 004c A2FB0312 		umull	r1, r2, r2, r3
  95 0050 120A     		lsrs	r2, r2, #8
  96              	.LVL12:
  34:main.c        ****         
  35:main.c        ****         // d'affichage
  36:main.c        ****         if (dist >= 1 && dist <= 50) {
  97              		.loc 1 36 0
  98 0052 561E     		subs	r6, r2, #1
  99 0054 312E     		cmp	r6, #49
 100 0056 04D8     		bhi	.L2
  37:main.c        ****             sprintf(message, "distance : %d cm (Ticks: %lu)\r\n", dist, ticks_ecoules);
 101              		.loc 1 37 0
 102 0058 1449     		ldr	r1, .L8+4
 103 005a 6846     		mov	r0, sp
 104              	.LVL13:
 105 005c FFF7FEFF 		bl	sprintf
 106              	.LVL14:
 107 0060 07E0     		b	.L3
 108              	.LVL15:
 109              	.L2:
  38:main.c        ****         } else {
  39:main.c        ****             sprintf(message, "Distance : --- cm (Hors portee)\r\n");
 110              		.loc 1 39 0
 111 0062 6C46     		mov	r4, sp
 112 0064 124D     		ldr	r5, .L8+8
 113 0066 0FCD     		ldmia	r5!, {r0, r1, r2, r3}
 114              	.LVL16:
 115 0068 0FC4     		stmia	r4!, {r0, r1, r2, r3}
 116 006a 0FCD     		ldmia	r5!, {r0, r1, r2, r3}
 117 006c 0FC4     		stmia	r4!, {r0, r1, r2, r3}
 118 006e 2B68     		ldr	r3, [r5]
 119 0070 2380     		strh	r3, [r4]	@ movhi
 120              	.L3:
  40:main.c        ****         }
  41:main.c        ****         UART_1_PutString(message);
 121              		.loc 1 41 0
 122 0072 6846     		mov	r0, sp
 123 0074 FFF7FEFF 		bl	UART_1_PutString
 124              	.LVL17:
  42:main.c        ****         
  43:main.c        ****         // Signal laser 
  44:main.c        ****         if (dist >= 1 && dist <= 30) {
 125              		.loc 1 44 0
 126 0078 1D2E     		cmp	r6, #29
 127 007a 07D8     		bhi	.L4
ARM GAS  C:\Users\bboucham\AppData\Local\Temp\ccbZZYma.s 			page 4


  45:main.c        ****             sprintf(message,"1\n");
 128              		.loc 1 45 0
 129 007c 0D4B     		ldr	r3, .L8+12
 130 007e 1B68     		ldr	r3, [r3]
 131 0080 ADF80030 		strh	r3, [sp]	@ movhi
 132 0084 1B0C     		lsrs	r3, r3, #16
 133 0086 8DF80230 		strb	r3, [sp, #2]
 134 008a 06E0     		b	.L5
 135              	.L4:
  46:main.c        ****         } else {
  47:main.c        ****             sprintf(message, "0\n");
 136              		.loc 1 47 0
 137 008c 0A4B     		ldr	r3, .L8+16
 138 008e 1B68     		ldr	r3, [r3]
 139 0090 ADF80030 		strh	r3, [sp]	@ movhi
 140 0094 1B0C     		lsrs	r3, r3, #16
 141 0096 8DF80230 		strb	r3, [sp, #2]
 142              	.L5:
  48:main.c        ****         }
  49:main.c        ****         UART_1_PutString(message); 
 143              		.loc 1 49 0
 144 009a 6846     		mov	r0, sp
 145 009c FFF7FEFF 		bl	UART_1_PutString
 146              	.LVL18:
  50:main.c        ****         UART_2_PutString(message); 
 147              		.loc 1 50 0
 148 00a0 6846     		mov	r0, sp
 149 00a2 FFF7FEFF 		bl	UART_2_PutString
 150              	.LVL19:
 151              	.LBE2:
  51:main.c        ****         
  52:main.c        ****         // Temp boucle
  53:main.c        ****         // uint32 time_ms = 16777215 - Timer_2_ReadCounter();
  54:main.c        ****         //sprintf(message, "[%lu ms] Distance : %d cm\r\n", time_ms, dist);
  55:main.c        ****         
  56:main.c        ****     }
 152              		.loc 1 56 0
 153 00a6 B6E7     		b	.L6
 154              	.L9:
 155              		.align	2
 156              	.L8:
 157 00a8 0399142F 		.word	789879043
 158 00ac 00000000 		.word	.LC0
 159 00b0 20000000 		.word	.LC1
 160 00b4 44000000 		.word	.LC2
 161 00b8 48000000 		.word	.LC3
 162              		.cfi_endproc
 163              	.LFE64:
 164              		.size	main, .-main
 165              		.section	.rodata.str1.4,"aMS",%progbits,1
 166              		.align	2
 167              	.LC0:
 168 0000 64697374 		.ascii	"distance : %d cm (Ticks: %lu)\015\012\000"
 168      616E6365 
 168      203A2025 
 168      6420636D 
 168      20285469 
ARM GAS  C:\Users\bboucham\AppData\Local\Temp\ccbZZYma.s 			page 5


 169              	.LC1:
 170 0020 44697374 		.ascii	"Distance : --- cm (Hors portee)\015\012\000"
 170      616E6365 
 170      203A202D 
 170      2D2D2063 
 170      6D202848 
 171 0042 0000     		.space	2
 172              	.LC2:
 173 0044 310A00   		.ascii	"1\012\000"
 174 0047 00       		.space	1
 175              	.LC3:
 176 0048 300A00   		.ascii	"0\012\000"
 177              		.text
 178              	.Letext0:
 179              		.file 2 "c:\\program files (x86)\\cypress\\psoc creator\\4.4\\psoc creator\\import\\gnu\\arm\\5.4.
 180              		.file 3 "c:\\program files (x86)\\cypress\\psoc creator\\4.4\\psoc creator\\import\\gnu\\arm\\5.4.
 181              		.file 4 "Generated_Source\\PSoC5/cytypes.h"
 182              		.file 5 "Generated_Source\\PSoC5/Timer_1.h"
 183              		.file 6 "Generated_Source\\PSoC5/Timer_2.h"
 184              		.file 7 "Generated_Source\\PSoC5/trigger.h"
 185              		.file 8 "Generated_Source\\PSoC5/CyLib.h"
 186              		.file 9 "c:\\program files (x86)\\cypress\\psoc creator\\4.4\\psoc creator\\import\\gnu\\arm\\5.4.
 187              		.file 10 "Generated_Source\\PSoC5/UART_1.h"
 188              		.file 11 "Generated_Source\\PSoC5/UART_2.h"
 189              		.file 12 "Generated_Source\\PSoC5/core_cm3.h"